target datalayout = "e-m:e-p270:32:32-p271:32:32-p272:64:64-i64:64-i128:128-f80:128-n8:16:32:64-S128"
target triple = "x86_64-unknown-linux-gnu"

%"class.std::__cxx11::basic_string" = type { %"struct.std::__cxx11::basic_string<char>::_Alloc_hider", i64, %union.anon }
%"struct.std::__cxx11::basic_string<char>::_Alloc_hider" = type { ptr }
%union.anon = type { i64, [8 x i8] }
%"class.Imf_3_2::TiledRgbaInputFile" = type { ptr, ptr, ptr, %"class.std::__cxx11::basic_string" }

; Function Attrs: mustprogress uwtable
define noundef i32 @_ZNK7Imf_3_218TiledRgbaInputFile9lineOrderEv(ptr noundef nonnull align 8 dereferenceable(56) %this) #4 align 2 {
entry:
  %this.addr = alloca ptr, align 8
  store ptr %this, ptr %this.addr, align 8
  %this1 = load ptr, ptr %this.addr, align 8
  %_inputFile = getelementptr inbounds %"class.Imf_3_2::TiledRgbaInputFile", ptr %this1, i32 0, i32 1
  %0 = load ptr, ptr %_inputFile, align 8
  %call = call noundef nonnull align 8 dereferenceable(49) ptr @_ZNK7Imf_3_214TiledInputFile6headerEv(ptr noundef nonnull align 8 dereferenceable(16) %0)
  %call2 = call noundef nonnull align 4 dereferenceable(4) ptr @_ZNK7Imf_3_26Header9lineOrderEv(ptr noundef nonnull align 8 dereferenceable(49) %call)
  %1 = load i32, ptr %call2, align 4
  ret i32 %1
}